(lp1
(S'acrelation'
p2
S'IntegrityError(\'insert or update on table "isisdata_acrelation" violates foreign key constraint "isisdata_acrelat_authority_id_f1efbde0_fk_isisdata_authority_id"\\nDETAIL:  Key (authority_id)=(CBA00082949) is not present in table "isisdata_authority".\\n\',)'
S'ACR001503199'
(dp3
S'data_display_order'
p4
F10.000999999999999
sS'record_status_explanation'
p5
V
sS'record_status_value'
p6
VInactive
p7
sS'created_on_fm'
p8
cdatetime
datetime
p9
(S'\x07\xe0\x05\r\x0f"5\x00\x00\x00'
tRp10
sS'authority_id'
p11
S'CBA00082949'
p12
sS'citation_id'
p13
S'CBB001510387'
p14
sS'public'
p15
I00
sS'type_controlled'
p16
S'AU'
p17
sS'administrator_notes'
p18
S'Done by SPW (2016.06.02): "Fix record. There is no Authority link to this record."'
p19
sS'modified_by_fm'
p20
S'spw'
p21
sS'type_broad_controlled'
p22
S'PR'
p23
sS'record_history'
p24
S'Imported from Filemaker conversion table on May 27, 2016. Original FM citation field where data was extracted: Author'
p25
sS'created_by_fm'
p26
S'admin'
p27
sS'modified_on_fm'
p28
g9
(S'\x07\xe0\x06\x03\x005&\x00\x00\x00'
tRp29
stp30
a(g2
S'IntegrityError(\'insert or update on table "isisdata_acrelation" violates foreign key constraint "isisdata_acrelat_authority_id_f1efbde0_fk_isisdata_authority_id"\\nDETAIL:  Key (authority_id)=(CBA000) is not present in table "isisdata_authority".\\n\',)'
S'ACR001506396'
(dp31
g5
V
sg6
g7
sg8
g9
(S'\x07\xe0\x05\r\x0f"6\x00\x00\x00'
tRp32
sS'authority_id'
p33
S'CBA000'
p34
sS'citation_id'
p35
S'CBB001551280'
p36
sg15
I00
sg16
S'PU'
p37
sg18
S'Done by SPW (2016.06.02): "Fix record. There is no Authority link to this record."'
p38
sg20
S'spw'
p39
sg22
S'IH'
p40
sg24
S'Imported from Filemaker conversion table on May 27, 2016. Original FM citation field where data was extracted: PlacePublisher'
p41
sg26
S'admin'
p42
sg28
g9
(S'\x07\xe0\x06\x03\x005&\x00\x00\x00'
tRp43
stp44
a(g2
S'IntegrityError(\'insert or update on table "isisdata_acrelation" violates foreign key constraint "isisdata_acrelatio_citation_id_c12c8dae_fk_isisdata_citation_id"\\nDETAIL:  Key (citation_id)=(CBB001551569) is not present in table "isisdata_citation".\\n\',)'
S'ACR001535432'
(dp45
g5
V
sg6
g7
sg8
g9
(S'\x07\xe0\x05\x12\x0c \x06\x00\x00\x00'
tRp46
sS'authority_id'
p47
S'CBA000165196'
p48
sS'citation_id'
p49
S'CBB001551569'
p50
sg15
I00
sg16
S'SU'
p51
sg20
S'spw'
p52
sg22
S'SC'
p53
sg24
S'Imported from Filemaker conversion table on May 27, 2016. Original FM citation field where data was extracted: Subjects'
p54
sg26
S'admin'
p55
sg28
g9
(S'\x07\xe0\x06\x02\x10\x18\x12\x00\x00\x00'
tRp56
stp57
a(S'acrelation'
p58
S'IntegrityError(\'insert or update on table "isisdata_acrelation" violates foreign key constraint "isisdata_acrelat_authority_id_f1efbde0_fk_isisdata_authority_id"\\nDETAIL:  Key (authority_id)=(CBA00082949) is not present in table "isisdata_authority".\\n\',)'
S'ACR001503199'
(dp59
S'data_display_order'
p60
F10.000999999999999
sS'record_status_explanation'
p61
V
sS'record_status_value'
p62
VActive
p63
sS'created_on_fm'
p64
g9
(S'\x07\xe0\x05\r\x0f"5\x00\x00\x00'
tRp65
sS'authority_id'
p66
S'CBA00082949'
p67
sS'citation_id'
p68
S'CBB001510387'
p69
sS'public'
p70
I01
sS'type_controlled'
p71
S'AU'
p72
sS'administrator_notes'
p73
S'Done by SPW (2016.06.02): "Fix record. There is no Authority link to this record."'
p74
sS'modified_by_fm'
p75
S'spw'
p76
sS'type_broad_controlled'
p77
S'PR'
p78
sS'record_history'
p79
S'Imported from Filemaker conversion table on May 27, 2016. Original FM citation field where data was extracted: Author'
p80
sS'created_by_fm'
p81
S'admin'
p82
sS'modified_on_fm'
p83
g9
(S'\x07\xe0\x06\x03\x005&\x00\x00\x00'
tRp84
stp85
a(g58
S'IntegrityError(\'insert or update on table "isisdata_acrelation" violates foreign key constraint "isisdata_acrelat_authority_id_f1efbde0_fk_isisdata_authority_id"\\nDETAIL:  Key (authority_id)=(CBA000) is not present in table "isisdata_authority".\\n\',)'
S'ACR001506396'
(dp86
g61
V
sg62
g63
sg64
g9
(S'\x07\xe0\x05\r\x0f"6\x00\x00\x00'
tRp87
sS'authority_id'
p88
S'CBA000'
p89
sS'citation_id'
p90
S'CBB001551280'
p91
sg70
I01
sg71
S'PU'
p92
sg73
S'Done by SPW (2016.06.02): "Fix record. There is no Authority link to this record."'
p93
sg75
S'spw'
p94
sg77
S'IH'
p95
sg79
S'Imported from Filemaker conversion table on May 27, 2016. Original FM citation field where data was extracted: PlacePublisher'
p96
sg81
S'admin'
p97
sg83
g9
(S'\x07\xe0\x06\x03\x005&\x00\x00\x00'
tRp98
stp99
a(g58
S'IntegrityError(\'insert or update on table "isisdata_acrelation" violates foreign key constraint "isisdata_acrelatio_citation_id_c12c8dae_fk_isisdata_citation_id"\\nDETAIL:  Key (citation_id)=(CBB001551569) is not present in table "isisdata_citation".\\n\',)'
S'ACR001535432'
(dp100
g61
V
sg62
g63
sg64
g9
(S'\x07\xe0\x05\x12\x0c \x06\x00\x00\x00'
tRp101
sS'authority_id'
p102
S'CBA000165196'
p103
sS'citation_id'
p104
S'CBB001551569'
p105
sg70
I01
sg71
S'SU'
p106
sg75
S'spw'
p107
sg77
S'SC'
p108
sg79
S'Imported from Filemaker conversion table on May 27, 2016. Original FM citation field where data was extracted: Subjects'
p109
sg81
S'admin'
p110
sg83
g9
(S'\x07\xe0\x06\x02\x10\x18\x12\x00\x00\x00'
tRp111
stp112
a(S'ccrelation'
p113
S'IntegrityError(\'insert or update on table "isisdata_ccrelation" violates foreign key constraint "isisdata_ccrelation_subject_id_467d874f_fk_isisdata_citation_id"\\nDETAIL:  Key (subject_id)=(CBB001180107 -- SEE ALSO CBB000073393) is not present in table "isisdata_citation".\\n\',)'
S'CCR000017229'
(dp114
S'data_display_order'
p115
F1000
sS'record_status_explanation'
p116
V
sS'record_status_value'
p117
VActive
p118
sS'subject_id'
p119
S'CBB001180107 -- SEE ALSO CBB000073393'
p120
sS'object_id'
p121
S'CBB000930085'
p122
sS'type_controlled'
p123
S'RB'
p124
sS'modified_by_fm'
p125
S'spw'
p126
sS'record_history'
p127
S'Marked as Inactive -- Subject is Reprint of old book in Old FM dataset. (2016.06.01) Created from LinkToRecord Field data in original CB Data Main Table. Original file is the Object of this Record.'
p128
sS'public'
p129
I01
stp130
a(g113
S'IntegrityError(\'insert or update on table "isisdata_ccrelation" violates foreign key constraint "isisdata_ccrelation_subject_id_467d874f_fk_isisdata_citation_id"\\nDETAIL:  Key (subject_id)=(CBB001550105) is not present in table "isisdata_citation".\\n\',)'
S'CCR000077310'
(dp131
g116
V
sg117
g118
sS'created_on_fm'
p132
g9
(S'\x07\xe0\x05\x0c\x0e\r\x1e\x00\x00\x00'
tRp133
sS'subject_id'
p134
S'CBB001550105'
p135
sS'object_id'
p136
S'CBB001550104'
p137
sS'created_by_fm'
p138
S'admin'
p139
sg123
g124
sg125
S'spw'
p140
sg127
S'Imported from Filemaker conversion table on May 27, 2016. Created from LinkToRecord Field data in original CB Data Main Table. Original file is the Object of this Record.'
p141
sg129
I01
stp142
a(g113
S'IntegrityError(\'insert or update on table "isisdata_ccrelation" violates foreign key constraint "isisdata_ccrelation_subject_id_467d874f_fk_isisdata_citation_id"\\nDETAIL:  Key (subject_id)=(CBB001420200) is not present in table "isisdata_citation".\\n\',)'
S'CCR000077848'
(dp143
g116
V
sg117
g118
sg132
g9
(S'\x07\xe0\x05\x0c\x0e\r\x1e\x00\x00\x00'
tRp144
sS'subject_id'
p145
S'CBB001420200'
p146
sS'object_id'
p147
S'CBB001550867'
p148
sg138
S'admin'
p149
sg123
g124
sg125
S'spw'
p150
sg127
S'Imported from Filemaker conversion table on May 27, 2016. Created from LinkToRecord Field data in original CB Data Main Table. Original file is the Object of this Record.'
p151
sg129
I01
stp152
a(g113
S'IntegrityError(\'insert or update on table "isisdata_ccrelation" violates foreign key constraint "isisdata_ccrelation_subject_id_467d874f_fk_isisdata_citation_id"\\nDETAIL:  Key (subject_id)=(CBB001420310) is not present in table "isisdata_citation".\\n\',)'
S'CCR000077877'
(dp153
g116
V
sg117
g118
sg132
g9
(S'\x07\xe0\x05\x0c\x0e\r\x1e\x00\x00\x00'
tRp154
sS'subject_id'
p155
S'CBB001420310'
p156
sS'object_id'
p157
S'CBB001550924'
p158
sg138
S'admin'
p159
sg123
g124
sg125
S'spw'
p160
sg127
S'Imported from Filemaker conversion table on May 27, 2016. Created from LinkToRecord Field data in original CB Data Main Table. Original file is the Object of this Record.'
p161
sg129
I01
stp162
a(g113
S'IntegrityError(\'insert or update on table "isisdata_ccrelation" violates foreign key constraint "isisdata_ccrelation_subject_id_467d874f_fk_isisdata_citation_id"\\nDETAIL:  Key (subject_id)=(CBB001551372) is not present in table "isisdata_citation".\\n\',)'
S'CCR000078128'
(dp163
g116
V
sg117
g118
sg132
g9
(S'\x07\xe0\x05\x0c\x0e\r\x1e\x00\x00\x00'
tRp164
sS'subject_id'
p165
S'CBB001551372'
p166
sS'object_id'
p167
S'CBB001551371'
p168
sg138
S'admin'
p169
sg123
g124
sg125
S'spw'
p170
sg127
S'Imported from Filemaker conversion table on May 27, 2016. Created from LinkToRecord Field data in original CB Data Main Table. Original file is the Object of this Record.'
p171
sg129
I01
stp172
a(g113
S'IntegrityError(\'insert or update on table "isisdata_ccrelation" violates foreign key constraint "isisdata_ccrelation_subject_id_467d874f_fk_isisdata_citation_id"\\nDETAIL:  Key (subject_id)=(CBB000000000) is not present in table "isisdata_citation".\\n\',)'
S'CCR000078256'
(dp173
g116
V
sg117
g118
sg132
g9
(S'\x07\xe0\x05\x0c\x0e\r\x1e\x00\x00\x00'
tRp174
sS'subject_id'
p175
S'CBB000000000'
p176
sS'object_id'
p177
S'CBB001551720'
p178
sg138
S'admin'
p179
sg123
g124
sg125
S'spw'
p180
sg127
S'Imported from Filemaker conversion table on May 27, 2016. Created from LinkToRecord Field data in original CB Data Main Table. Original file is the Object of this Record.'
p181
sg129
I01
stp182
a(g113
S'IntegrityError(\'insert or update on table "isisdata_ccrelation" violates foreign key constraint "isisdata_ccrelation_subject_id_467d874f_fk_isisdata_citation_id"\\nDETAIL:  Key (subject_id)=(CBB001552050) is not present in table "isisdata_citation".\\n\',)'
S'CCR000078320'
(dp183
g116
V
sg117
g118
sg132
g9
(S'\x07\xe0\x05\x0c\x0e\r\x1e\x00\x00\x00'
tRp184
sS'subject_id'
p185
S'CBB001552050'
p186
sS'object_id'
p187
S'CBB001552049'
p188
sg138
S'admin'
p189
sg123
g124
sg125
S'spw'
p190
sg127
S'Imported from Filemaker conversion table on May 27, 2016. Created from LinkToRecord Field data in original CB Data Main Table. Original file is the Object of this Record.'
p191
sg129
I01
stp192
a(g113
S'IntegrityError(\'insert or update on table "isisdata_ccrelation" violates foreign key constraint "isisdata_ccrelation_subject_id_467d874f_fk_isisdata_citation_id"\\nDETAIL:  Key (subject_id)=(CBB001552202) is not present in table "isisdata_citation".\\n\',)'
S'CCR000078394'
(dp193
g116
V
sg117
g118
sg132
g9
(S'\x07\xe0\x05\x0c\x0e\r\x1e\x00\x00\x00'
tRp194
sS'subject_id'
p195
S'CBB001552202'
p196
sS'object_id'
p197
S'CBB001552201'
p198
sg138
S'admin'
p199
sg123
g124
sg125
S'spw'
p200
sg127
S'Imported from Filemaker conversion table on May 27, 2016. Created from LinkToRecord Field data in original CB Data Main Table. Original file is the Object of this Record.'
p201
sg129
I01
stp202
a(g113
S'IntegrityError(\'insert or update on table "isisdata_ccrelation" violates foreign key constraint "isisdata_ccrelation_subject_id_467d874f_fk_isisdata_citation_id"\\nDETAIL:  Key (subject_id)=(CBB001552209) is not present in table "isisdata_citation".\\n\',)'
S'CCR000078398'
(dp203
g116
V
sg117
g118
sg132
g9
(S'\x07\xe0\x05\x0c\x0e\r\x1e\x00\x00\x00'
tRp204
sS'subject_id'
p205
S'CBB001552209'
p206
sS'object_id'
p207
S'CBB001552208'
p208
sg138
S'admin'
p209
sg123
g124
sg125
S'spw'
p210
sg127
S'Imported from Filemaker conversion table on May 27, 2016. Created from LinkToRecord Field data in original CB Data Main Table. Original file is the Object of this Record.'
p211
sg129
I01
stp212
a(g113
S'IntegrityError(\'insert or update on table "isisdata_ccrelation" violates foreign key constraint "isisdata_ccrelation_subject_id_467d874f_fk_isisdata_citation_id"\\nDETAIL:  Key (subject_id)=(CBB001552464) is not present in table "isisdata_citation".\\n\',)'
S'CCR000078515'
(dp213
g116
V
sg117
g118
sg132
g9
(S'\x07\xe0\x05\x0c\x0e\r\x1e\x00\x00\x00'
tRp214
sS'subject_id'
p215
S'CBB001552464'
p216
sS'object_id'
p217
S'CBB001552463'
p218
sg138
S'admin'
p219
sg123
g124
sg125
S'spw'
p220
sg127
S'Imported from Filemaker conversion table on May 27, 2016. Created from LinkToRecord Field data in original CB Data Main Table. Original file is the Object of this Record.'
p221
sg129
I01
stp222
a(g113
S'IntegrityError(\'insert or update on table "isisdata_ccrelation" violates foreign key constraint "isisdata_ccrelation_subject_id_467d874f_fk_isisdata_citation_id"\\nDETAIL:  Key (subject_id)=(CBB001450526) is not present in table "isisdata_citation".\\n\',)'
S'CCR000078554'
(dp223
g116
V
sg117
g118
sg132
g9
(S'\x07\xe0\x05\x0c\x0e\r\x1e\x00\x00\x00'
tRp224
sS'subject_id'
p225
S'CBB001450526'
p226
sS'object_id'
p227
S'CBB001552533'
p228
sg138
S'admin'
p229
sg123
g124
sg125
S'spw'
p230
sg127
S'Imported from Filemaker conversion table on May 27, 2016. Created from LinkToRecord Field data in original CB Data Main Table. Original file is the Object of this Record.'
p231
sg129
I01
stp232
a.