(lp1
(S'acrelation'
p2
S'IntegrityError(\'insert or update on table "isisdata_acrelation" violates foreign key constraint "isisdata_acrelat_authority_id_f1efbde0_fk_isisdata_authority_id"\\nDETAIL:  Key (authority_id)=(CBA00082949) is not present in table "isisdata_authority".\\n\',)'
S'ACR001503199'
(dp3
S'data_display_order'
p4
F10.000999999999999
sS'record_status_explanation'
p5
V
sS'administrator_notes'
p6
S'Done by SPW (2016.06.02): "Fix record. There is no Authority link to this record."'
p7
sS'record_status_value'
p8
VInactive
p9
sS'created_on_fm'
p10
cdatetime
datetime
p11
(S'\x07\xe0\x05\r\x0f"5\x00\x00\x00'
tRp12
sS'authority_id'
p13
S'CBA00082949'
p14
sS'citation_id'
p15
S'CBB001510387'
p16
sS'created_by_fm'
p17
S'admin'
p18
sS'type_controlled'
p19
S'AU'
p20
sS'modified_by_fm'
p21
S'spw'
p22
sS'type_broad_controlled'
p23
S'PR'
p24
sS'record_history'
p25
S'Imported from Filemaker conversion table on May 27, 2016. Original FM citation field where data was extracted: Author'
p26
sS'public'
p27
I00
sS'modified_on_fm'
p28
g11
(S'\x07\xe0\x06\x03\x005&\x00\x00\x00'
tRp29
stp30
a(g2
S'IntegrityError(\'insert or update on table "isisdata_acrelation" violates foreign key constraint "isisdata_acrelat_authority_id_f1efbde0_fk_isisdata_authority_id"\\nDETAIL:  Key (authority_id)=(CBA000) is not present in table "isisdata_authority".\\n\',)'
S'ACR001506396'
(dp31
g5
V
sg6
S'Done by SPW (2016.06.02): "Fix record. There is no Authority link to this record."'
p32
sg8
g9
sg10
g11
(S'\x07\xe0\x05\r\x0f"6\x00\x00\x00'
tRp33
sS'authority_id'
p34
S'CBA000'
p35
sS'citation_id'
p36
S'CBB001551280'
p37
sg17
S'admin'
p38
sg19
S'PU'
p39
sg21
S'spw'
p40
sg23
S'IH'
p41
sg25
S'Imported from Filemaker conversion table on May 27, 2016. Original FM citation field where data was extracted: PlacePublisher'
p42
sg27
I00
sg28
g11
(S'\x07\xe0\x06\x03\x005&\x00\x00\x00'
tRp43
stp44
a(g2
S'IntegrityError(\'insert or update on table "isisdata_acrelation" violates foreign key constraint "isisdata_acrelatio_citation_id_c12c8dae_fk_isisdata_citation_id"\\nDETAIL:  Key (citation_id)=(CBB001551569) is not present in table "isisdata_citation".\\n\',)'
S'ACR001535432'
(dp45
g5
V
sg8
g9
sg10
g11
(S'\x07\xe0\x05\x12\x0c \x06\x00\x00\x00'
tRp46
sS'authority_id'
p47
S'CBA000165196'
p48
sS'citation_id'
p49
S'CBB001551569'
p50
sg17
S'admin'
p51
sg19
S'SU'
p52
sg21
S'spw'
p53
sg23
S'SC'
p54
sg25
S'Imported from Filemaker conversion table on May 27, 2016. Original FM citation field where data was extracted: Subjects'
p55
sg27
I00
sg28
g11
(S'\x07\xe0\x06\x02\x10\x18\x12\x00\x00\x00'
tRp56
stp57
a(S'acrelation'
p58
S'IntegrityError(\'insert or update on table "isisdata_acrelation" violates foreign key constraint "isisdata_acrelat_authority_id_f1efbde0_fk_isisdata_authority_id"\\nDETAIL:  Key (authority_id)=(CBA00082949) is not present in table "isisdata_authority".\\n\',)'
S'ACR001503199'
(dp59
S'data_display_order'
p60
F10.000999999999999
sS'record_status_explanation'
p61
V
sS'administrator_notes'
p62
S'Done by SPW (2016.06.02): "Fix record. There is no Authority link to this record."'
p63
sS'record_status_value'
p64
VActive
p65
sS'created_on_fm'
p66
g11
(S'\x07\xe0\x05\r\x0f"5\x00\x00\x00'
tRp67
sS'authority_id'
p68
S'CBA00082949'
p69
sS'citation_id'
p70
S'CBB001510387'
p71
sS'created_by_fm'
p72
S'admin'
p73
sS'type_controlled'
p74
S'AU'
p75
sS'modified_by_fm'
p76
S'spw'
p77
sS'type_broad_controlled'
p78
S'PR'
p79
sS'record_history'
p80
S'Imported from Filemaker conversion table on May 27, 2016. Original FM citation field where data was extracted: Author'
p81
sS'public'
p82
I01
sS'modified_on_fm'
p83
g11
(S'\x07\xe0\x06\x03\x005&\x00\x00\x00'
tRp84
stp85
a(g58
S'IntegrityError(\'insert or update on table "isisdata_acrelation" violates foreign key constraint "isisdata_acrelat_authority_id_f1efbde0_fk_isisdata_authority_id"\\nDETAIL:  Key (authority_id)=(CBA000) is not present in table "isisdata_authority".\\n\',)'
S'ACR001506396'
(dp86
g61
V
sg62
S'Done by SPW (2016.06.02): "Fix record. There is no Authority link to this record."'
p87
sg64
g65
sg66
g11
(S'\x07\xe0\x05\r\x0f"6\x00\x00\x00'
tRp88
sS'authority_id'
p89
S'CBA000'
p90
sS'citation_id'
p91
S'CBB001551280'
p92
sg72
S'admin'
p93
sg74
S'PU'
p94
sg76
S'spw'
p95
sg78
S'IH'
p96
sg80
S'Imported from Filemaker conversion table on May 27, 2016. Original FM citation field where data was extracted: PlacePublisher'
p97
sg82
I01
sg83
g11
(S'\x07\xe0\x06\x03\x005&\x00\x00\x00'
tRp98
stp99
a(g58
S'IntegrityError(\'insert or update on table "isisdata_acrelation" violates foreign key constraint "isisdata_acrelatio_citation_id_c12c8dae_fk_isisdata_citation_id"\\nDETAIL:  Key (citation_id)=(CBB001551569) is not present in table "isisdata_citation".\\n\',)'
S'ACR001535432'
(dp100
g61
V
sg64
g65
sg66
g11
(S'\x07\xe0\x05\x12\x0c \x06\x00\x00\x00'
tRp101
sS'authority_id'
p102
S'CBA000165196'
p103
sS'citation_id'
p104
S'CBB001551569'
p105
sg72
S'admin'
p106
sg74
S'SU'
p107
sg76
S'spw'
p108
sg78
S'SC'
p109
sg80
S'Imported from Filemaker conversion table on May 27, 2016. Original FM citation field where data was extracted: Subjects'
p110
sg82
I01
sg83
g11
(S'\x07\xe0\x06\x02\x10\x18\x12\x00\x00\x00'
tRp111
stp112
a(S'ccrelation'
p113
S'IntegrityError(\'insert or update on table "isisdata_ccrelation" violates foreign key constraint "isisdata_ccrelation_subject_id_467d874f_fk_isisdata_citation_id"\\nDETAIL:  Key (subject_id)=(CBB001180107 -- SEE ALSO CBB000073393) is not present in table "isisdata_citation".\\n\',)'
S'CCR000017229'
(dp114
S'data_display_order'
p115
F1000
sS'record_status_explanation'
p116
V
sS'record_status_value'
p117
VActive
p118
sS'subject_id'
p119
S'CBB001180107 -- SEE ALSO CBB000073393'
p120
sS'object_id'
p121
S'CBB000930085'
p122
sS'type_controlled'
p123
S'RB'
p124
sS'modified_by_fm'
p125
S'spw'
p126
sS'record_history'
p127
S'Marked as Inactive -- Subject is Reprint of old book in Old FM dataset. (2016.06.01) Created from LinkToRecord Field data in original CB Data Main Table. Original file is the Object of this Record.'
p128
sS'public'
p129
I01
stp130
a(g113
S'IntegrityError(\'insert or update on table "isisdata_ccrelation" violates foreign key constraint "isisdata_ccrelation_subject_id_467d874f_fk_isisdata_citation_id"\\nDETAIL:  Key (subject_id)=(CBB001550105) is not present in table "isisdata_citation".\\n\',)'
S'CCR000077310'
(dp131
g116
V
sg117
g118
sS'created_on_fm'
p132
g11
(S'\x07\xe0\x05\x0c\x0e\r\x1e\x00\x00\x00'
tRp133
sS'subject_id'
p134
S'CBB001550105'
p135
sS'object_id'
p136
S'CBB001550104'
p137
sg129
I01
sg123
g124
sg125
S'spw'
p138
sg127
S'Imported from Filemaker conversion table on May 27, 2016. Created from LinkToRecord Field data in original CB Data Main Table. Original file is the Object of this Record.'
p139
sS'created_by_fm'
p140
S'admin'
p141
stp142
a(g113
S'IntegrityError(\'insert or update on table "isisdata_ccrelation" violates foreign key constraint "isisdata_ccrelation_subject_id_467d874f_fk_isisdata_citation_id"\\nDETAIL:  Key (subject_id)=(CBB001420200) is not present in table "isisdata_citation".\\n\',)'
S'CCR000077848'
(dp143
g116
V
sg117
g118
sg132
g11
(S'\x07\xe0\x05\x0c\x0e\r\x1e\x00\x00\x00'
tRp144
sS'subject_id'
p145
S'CBB001420200'
p146
sS'object_id'
p147
S'CBB001550867'
p148
sg129
I01
sg123
g124
sg125
S'spw'
p149
sg127
S'Imported from Filemaker conversion table on May 27, 2016. Created from LinkToRecord Field data in original CB Data Main Table. Original file is the Object of this Record.'
p150
sg140
S'admin'
p151
stp152
a(g113
S'IntegrityError(\'insert or update on table "isisdata_ccrelation" violates foreign key constraint "isisdata_ccrelation_subject_id_467d874f_fk_isisdata_citation_id"\\nDETAIL:  Key (subject_id)=(CBB001420310) is not present in table "isisdata_citation".\\n\',)'
S'CCR000077877'
(dp153
g116
V
sg117
g118
sg132
g11
(S'\x07\xe0\x05\x0c\x0e\r\x1e\x00\x00\x00'
tRp154
sS'subject_id'
p155
S'CBB001420310'
p156
sS'object_id'
p157
S'CBB001550924'
p158
sg129
I01
sg123
g124
sg125
S'spw'
p159
sg127
S'Imported from Filemaker conversion table on May 27, 2016. Created from LinkToRecord Field data in original CB Data Main Table. Original file is the Object of this Record.'
p160
sg140
S'admin'
p161
stp162
a(g113
S'IntegrityError(\'insert or update on table "isisdata_ccrelation" violates foreign key constraint "isisdata_ccrelation_subject_id_467d874f_fk_isisdata_citation_id"\\nDETAIL:  Key (subject_id)=(CBB001551372) is not present in table "isisdata_citation".\\n\',)'
S'CCR000078128'
(dp163
g116
V
sg117
g118
sg132
g11
(S'\x07\xe0\x05\x0c\x0e\r\x1e\x00\x00\x00'
tRp164
sS'subject_id'
p165
S'CBB001551372'
p166
sS'object_id'
p167
S'CBB001551371'
p168
sg129
I01
sg123
g124
sg125
S'spw'
p169
sg127
S'Imported from Filemaker conversion table on May 27, 2016. Created from LinkToRecord Field data in original CB Data Main Table. Original file is the Object of this Record.'
p170
sg140
S'admin'
p171
stp172
a(g113
S'IntegrityError(\'insert or update on table "isisdata_ccrelation" violates foreign key constraint "isisdata_ccrelation_subject_id_467d874f_fk_isisdata_citation_id"\\nDETAIL:  Key (subject_id)=(CBB000000000) is not present in table "isisdata_citation".\\n\',)'
S'CCR000078256'
(dp173
g116
V
sg117
g118
sg132
g11
(S'\x07\xe0\x05\x0c\x0e\r\x1e\x00\x00\x00'
tRp174
sS'subject_id'
p175
S'CBB000000000'
p176
sS'object_id'
p177
S'CBB001551720'
p178
sg129
I01
sg123
g124
sg125
S'spw'
p179
sg127
S'Imported from Filemaker conversion table on May 27, 2016. Created from LinkToRecord Field data in original CB Data Main Table. Original file is the Object of this Record.'
p180
sg140
S'admin'
p181
stp182
a(g113
S'IntegrityError(\'insert or update on table "isisdata_ccrelation" violates foreign key constraint "isisdata_ccrelation_subject_id_467d874f_fk_isisdata_citation_id"\\nDETAIL:  Key (subject_id)=(CBB001552050) is not present in table "isisdata_citation".\\n\',)'
S'CCR000078320'
(dp183
g116
V
sg117
g118
sg132
g11
(S'\x07\xe0\x05\x0c\x0e\r\x1e\x00\x00\x00'
tRp184
sS'subject_id'
p185
S'CBB001552050'
p186
sS'object_id'
p187
S'CBB001552049'
p188
sg129
I01
sg123
g124
sg125
S'spw'
p189
sg127
S'Imported from Filemaker conversion table on May 27, 2016. Created from LinkToRecord Field data in original CB Data Main Table. Original file is the Object of this Record.'
p190
sg140
S'admin'
p191
stp192
a(g113
S'IntegrityError(\'insert or update on table "isisdata_ccrelation" violates foreign key constraint "isisdata_ccrelation_subject_id_467d874f_fk_isisdata_citation_id"\\nDETAIL:  Key (subject_id)=(CBB001552202) is not present in table "isisdata_citation".\\n\',)'
S'CCR000078394'
(dp193
g116
V
sg117
g118
sg132
g11
(S'\x07\xe0\x05\x0c\x0e\r\x1e\x00\x00\x00'
tRp194
sS'subject_id'
p195
S'CBB001552202'
p196
sS'object_id'
p197
S'CBB001552201'
p198
sg129
I01
sg123
g124
sg125
S'spw'
p199
sg127
S'Imported from Filemaker conversion table on May 27, 2016. Created from LinkToRecord Field data in original CB Data Main Table. Original file is the Object of this Record.'
p200
sg140
S'admin'
p201
stp202
a(g113
S'IntegrityError(\'insert or update on table "isisdata_ccrelation" violates foreign key constraint "isisdata_ccrelation_subject_id_467d874f_fk_isisdata_citation_id"\\nDETAIL:  Key (subject_id)=(CBB001552209) is not present in table "isisdata_citation".\\n\',)'
S'CCR000078398'
(dp203
g116
V
sg117
g118
sg132
g11
(S'\x07\xe0\x05\x0c\x0e\r\x1e\x00\x00\x00'
tRp204
sS'subject_id'
p205
S'CBB001552209'
p206
sS'object_id'
p207
S'CBB001552208'
p208
sg129
I01
sg123
g124
sg125
S'spw'
p209
sg127
S'Imported from Filemaker conversion table on May 27, 2016. Created from LinkToRecord Field data in original CB Data Main Table. Original file is the Object of this Record.'
p210
sg140
S'admin'
p211
stp212
a(g113
S'IntegrityError(\'insert or update on table "isisdata_ccrelation" violates foreign key constraint "isisdata_ccrelation_subject_id_467d874f_fk_isisdata_citation_id"\\nDETAIL:  Key (subject_id)=(CBB001552464) is not present in table "isisdata_citation".\\n\',)'
S'CCR000078515'
(dp213
g116
V
sg117
g118
sg132
g11
(S'\x07\xe0\x05\x0c\x0e\r\x1e\x00\x00\x00'
tRp214
sS'subject_id'
p215
S'CBB001552464'
p216
sS'object_id'
p217
S'CBB001552463'
p218
sg129
I01
sg123
g124
sg125
S'spw'
p219
sg127
S'Imported from Filemaker conversion table on May 27, 2016. Created from LinkToRecord Field data in original CB Data Main Table. Original file is the Object of this Record.'
p220
sg140
S'admin'
p221
stp222
a(g113
S'IntegrityError(\'insert or update on table "isisdata_ccrelation" violates foreign key constraint "isisdata_ccrelation_subject_id_467d874f_fk_isisdata_citation_id"\\nDETAIL:  Key (subject_id)=(CBB001450526) is not present in table "isisdata_citation".\\n\',)'
S'CCR000078554'
(dp223
g116
V
sg117
g118
sg132
g11
(S'\x07\xe0\x05\x0c\x0e\r\x1e\x00\x00\x00'
tRp224
sS'subject_id'
p225
S'CBB001450526'
p226
sS'object_id'
p227
S'CBB001552533'
p228
sg129
I01
sg123
g124
sg125
S'spw'
p229
sg127
S'Imported from Filemaker conversion table on May 27, 2016. Created from LinkToRecord Field data in original CB Data Main Table. Original file is the Object of this Record.'
p230
sg140
S'admin'
p231
stp232
a.